target datalayout = "e-m:e-p270:32:32-p271:32:32-p272:64:64-i64:64-i128:128-f80:128-n8:16:32:64-S128"
target triple = "x86_64-pc-linux-gnu"

%class.symbol = type { ptr }
%"class.array::solver" = type { %"class.euf::th_euf_solver.base", %class.array_util, %"struct.array::solver::stats", %class.scoped_ptr_vector, %class.ast2ast_trailmap, %class.ast2ast_trailmap.12, %class.obj_map.23, %class.union_find, %"struct.array::solver::axiom_record::hash", %"struct.array::solver::axiom_record::eq", %class.hashtable, %class.svector.30, i32, i32, i8, %class.scoped_ptr, %class.ptr_vector, %class.ptr_vector.32, %class.svector.34, %class.obj_map.36, %class.ptr_vector, %class.ptr_vector.41 }
%"class.euf::th_euf_solver.base" = type <{ %"class.euf::th_solver", ptr, %class.ptr_vector, %class.svector.1, i32 }>
%"class.euf::th_solver" = type { %"class.sat::extension", %"class.euf::th_model_builder", %"class.euf::th_decompile", %"class.euf::th_internalizer", ptr }
%"class.sat::extension" = type { ptr, i8, i32, %class.symbol, ptr }
%"class.euf::th_model_builder" = type { ptr }
%"class.euf::th_decompile" = type { ptr }
%"class.euf::th_internalizer" = type { ptr, %class.ptr_vector, %class.svector }
%class.svector = type { %class.vector.0 }
%class.vector.0 = type { ptr }
%class.svector.1 = type { %class.vector.2 }
%class.vector.2 = type { ptr }
%class.array_util = type { %class.array_recognizers, ptr }
%class.array_recognizers = type { i32 }
%"struct.array::solver::stats" = type { i32, i32, i32, i32, i32, i32, i32, i32, i32, i32, i32, i32, i32, i32 }
%class.scoped_ptr_vector = type { %class.ptr_vector.3 }
%class.ptr_vector.3 = type { %class.vector.4 }
%class.vector.4 = type { ptr }
%class.ast2ast_trailmap = type { %class.ref_vector, %class.ref_vector.7, %class.obj_map }
%class.ref_vector = type { %class.ref_vector_core }
%class.ref_vector_core = type { %class.ref_manager_wrapper, %class.ptr_vector.5 }
%class.ref_manager_wrapper = type { ptr }
%class.ptr_vector.5 = type { %class.vector.6 }
%class.vector.6 = type { ptr }
%class.ref_vector.7 = type { %class.ref_vector_core.8 }
%class.ref_vector_core.8 = type { %class.ref_manager_wrapper.9, %class.ptr_vector.10 }
%class.ref_manager_wrapper.9 = type { ptr }
%class.ptr_vector.10 = type { %class.vector.11 }
%class.vector.11 = type { ptr }
%class.obj_map = type { %class.core_hashtable }
%class.core_hashtable = type <{ ptr, i32, i32, i32, [4 x i8] }>
%class.ast2ast_trailmap.12 = type { %class.ref_vector, %class.ref_vector.13, %class.obj_map.18 }
%class.ref_vector.13 = type { %class.ref_vector_core.14 }
%class.ref_vector_core.14 = type { %class.ref_manager_wrapper.15, %class.ptr_vector.16 }
%class.ref_manager_wrapper.15 = type { ptr }
%class.ptr_vector.16 = type { %class.vector.17 }
%class.vector.17 = type { ptr }
%class.obj_map.18 = type { %class.core_hashtable.19 }
%class.core_hashtable.19 = type <{ ptr, i32, i32, i32, [4 x i8] }>
%class.obj_map.23 = type { %class.core_hashtable.24 }
%class.core_hashtable.24 = type <{ ptr, i32, i32, i32, [4 x i8] }>
%class.union_find = type { ptr, ptr, %class.svector.1, %class.svector.1, %class.svector.1, %"class.union_find<array::solver>::mk_var_trail" }
%"class.union_find<array::solver>::mk_var_trail" = type { %class.trail, ptr }
%class.trail = type { ptr }
%"struct.array::solver::axiom_record::hash" = type { ptr }
%"struct.array::solver::axiom_record::eq" = type { ptr }
%class.hashtable = type { %class.core_hashtable.base.29, [4 x i8] }
%class.core_hashtable.base.29 = type <{ %"struct.array::solver::axiom_record::hash", %"struct.array::solver::axiom_record::eq", ptr, i32, i32, i32 }>
%class.svector.30 = type { %class.vector.31 }
%class.vector.31 = type { ptr }
%class.scoped_ptr = type { ptr }
%class.ptr_vector.32 = type { %class.vector.33 }
%class.vector.33 = type { ptr }
%class.svector.34 = type { %class.vector.35 }
%class.vector.35 = type { ptr }
%class.obj_map.36 = type { %class.core_hashtable.37 }
%class.core_hashtable.37 = type <{ ptr, i32, i32, i32, [4 x i8] }>
%class.ptr_vector = type { %class.vector }
%class.vector = type { ptr }
%class.ptr_vector.41 = type { %class.vector.42 }
%class.vector.42 = type { ptr }
%"class.euf::th_euf_solver" = type <{ %"class.euf::th_solver", ptr, %class.ptr_vector, %class.svector.1, i32, [4 x i8] }>
%"class.euf::th_eq" = type { i32, i32, i32, %union.anon.226, ptr }
%union.anon.226 = type { ptr }
%"struct.array::solver::axiom_record" = type { i32, i32, ptr, ptr }
%"class.euf::justification" = type { i32, %union.anon.71, %union.anon.72 }
%union.anon.71 = type { ptr }
%union.anon.72 = type { ptr }
%"class.euf::enode" = type { ptr, i8, i8, i8, i8, i8, i8, i8, i8, i8, i32, i32, i32, i32, i32, i32, %class.ptr_vector, ptr, ptr, ptr, ptr, %class.id_var_list, %"class.euf::justification", %"class.euf::justification", i32, i8, %class.approx_set, %class.approx_set, [0 x ptr] }
%class.id_var_list = type { i32, ptr }
%class.approx_set = type { %class.approx_set_tpl.227 }
%class.approx_set_tpl.227 = type { i64 }
%class.ast = type { i32, i32, i32, i32 }
%class.decl = type { %class.ast, %class.symbol, ptr }
%class.decl_info = type <{ i32, i32, %class.vector.230, i8, [7 x i8] }>
%class.vector.230 = type { ptr }

; Function Attrs: mustprogress nounwind uwtable
define linkonce_odr hidden noundef i32 @_ZNK9decl_info13get_decl_kindEv(ptr noundef nonnull align 8 dereferenceable(17) %0) #6 comdat align 2 {
  %2 = alloca ptr, align 8
  store ptr %0, ptr %2, align 8, !tbaa !484
  %3 = load ptr, ptr %2, align 8
  %4 = getelementptr inbounds nuw %class.decl_info, ptr %3, i32 0, i32 1
  %5 = load i32, ptr %4, align 4, !tbaa !489
  ret i32 %5
}

; Function Attrs: mustprogress nounwind uwtable
define linkonce_odr hidden noundef i32 @_ZNK9decl_info13get_family_idEv(ptr noundef nonnull align 8 dereferenceable(17) %0) #6 comdat align 2 {
  %2 = alloca ptr, align 8
  store ptr %0, ptr %2, align 8, !tbaa !484
  %3 = load ptr, ptr %2, align 8
  %4 = getelementptr inbounds nuw %class.decl_info, ptr %3, i32 0, i32 0
  %5 = load i32, ptr %4, align 8, !tbaa !485
  ret i32 %5
}

; Function Attrs: mustprogress uwtable
define linkonce_odr hidden noundef i32 @_ZNK4decl13get_decl_kindEv(ptr noundef nonnull align 8 dereferenceable(32) %0) #4 comdat align 2 {
  %2 = alloca ptr, align 8
  store ptr %0, ptr %2, align 8, !tbaa !479
  %3 = load ptr, ptr %2, align 8
  %4 = getelementptr inbounds nuw %class.decl, ptr %3, i32 0, i32 2
  %5 = load ptr, ptr %4, align 8, !tbaa !481
  %6 = icmp eq ptr %5, null
  br i1 %6, label %7, label %8

7:                                                ; preds = %1
  br label %12

8:                                                ; preds = %1
  %9 = getelementptr inbounds nuw %class.decl, ptr %3, i32 0, i32 2
  %10 = load ptr, ptr %9, align 8, !tbaa !481
  %11 = call noundef i32 @_ZNK9decl_info13get_decl_kindEv(ptr noundef nonnull align 8 dereferenceable(17) %10)
  br label %12

12:                                               ; preds = %8, %7
  %13 = phi i32 [ -1, %7 ], [ %11, %8 ]
  ret i32 %13
}

; Function Attrs: mustprogress uwtable
define linkonce_odr hidden noundef i32 @_ZNK4decl13get_family_idEv(ptr noundef nonnull align 8 dereferenceable(32) %0) #4 comdat align 2 {
  %2 = alloca ptr, align 8
  store ptr %0, ptr %2, align 8, !tbaa !479
  %3 = load ptr, ptr %2, align 8
  %4 = getelementptr inbounds nuw %class.decl, ptr %3, i32 0, i32 2
  %5 = load ptr, ptr %4, align 8, !tbaa !481
  %6 = icmp eq ptr %5, null
  br i1 %6, label %7, label %8

7:                                                ; preds = %1
  br label %12

8:                                                ; preds = %1
  %9 = getelementptr inbounds nuw %class.decl, ptr %3, i32 0, i32 2
  %10 = load ptr, ptr %9, align 8, !tbaa !481
  %11 = call noundef i32 @_ZNK9decl_info13get_family_idEv(ptr noundef nonnull align 8 dereferenceable(17) %10)
  br label %12

12:                                               ; preds = %8, %7
  %13 = phi i32 [ -1, %7 ], [ %11, %8 ]
  ret i32 %13
}

; Function Attrs: mustprogress uwtable
define linkonce_odr hidden noundef zeroext i1 @_ZNK4sort10is_sort_ofEii(ptr noundef nonnull align 8 dereferenceable(32) %0, i32 noundef %1, i32 noundef %2) #4 comdat align 2 {
  %4 = alloca ptr, align 8
  %5 = alloca i32, align 4
  %6 = alloca i32, align 4
  store ptr %0, ptr %4, align 8, !tbaa !421
  store i32 %1, ptr %5, align 4, !tbaa !10
  store i32 %2, ptr %6, align 4, !tbaa !10
  %7 = load ptr, ptr %4, align 8
  %8 = call noundef i32 @_ZNK4decl13get_family_idEv(ptr noundef nonnull align 8 dereferenceable(32) %7)
  %9 = load i32, ptr %5, align 4, !tbaa !10
  %10 = icmp eq i32 %8, %9
  br i1 %10, label %11, label %15

11:                                               ; preds = %3
  %12 = call noundef i32 @_ZNK4decl13get_decl_kindEv(ptr noundef nonnull align 8 dereferenceable(32) %7)
  %13 = load i32, ptr %6, align 4, !tbaa !10
  %14 = icmp eq i32 %12, %13
  br label %15

15:                                               ; preds = %11, %3
  %16 = phi i1 [ false, %3 ], [ %14, %11 ]
  ret i1 %16
}

; Function Attrs: inlinehint mustprogress uwtable
define linkonce_odr hidden noundef zeroext i1 @_Z10is_sort_ofPK4sortii(ptr noundef %0, i32 noundef %1, i32 noundef %2) #9 comdat {
  %4 = alloca ptr, align 8
  %5 = alloca i32, align 4
  %6 = alloca i32, align 4
  store ptr %0, ptr %4, align 8, !tbaa !421
  store i32 %1, ptr %5, align 4, !tbaa !10
  store i32 %2, ptr %6, align 4, !tbaa !10
  %7 = load ptr, ptr %4, align 8, !tbaa !421
  %8 = load i32, ptr %5, align 4, !tbaa !10
  %9 = load i32, ptr %6, align 4, !tbaa !10
  %10 = call noundef zeroext i1 @_ZNK4sort10is_sort_ofEii(ptr noundef nonnull align 8 dereferenceable(32) %7, i32 noundef %8, i32 noundef %9)
  ret i1 %10
}

; Function Attrs: mustprogress uwtable
define linkonce_odr hidden noundef zeroext i1 @_ZNK17array_recognizers8is_arrayEP4sort(ptr noundef nonnull align 4 dereferenceable(4) %0, ptr noundef %1) #4 comdat align 2 {
  %3 = alloca ptr, align 8
  %4 = alloca ptr, align 8
  store ptr %0, ptr %3, align 8, !tbaa !359
  store ptr %1, ptr %4, align 8, !tbaa !421
  %5 = load ptr, ptr %3, align 8
  %6 = load ptr, ptr %4, align 8, !tbaa !421
  %7 = getelementptr inbounds nuw %class.array_recognizers, ptr %5, i32 0, i32 0
  %8 = load i32, ptr %7, align 4, !tbaa !363
  %9 = call noundef zeroext i1 @_Z10is_sort_ofPK4sortii(ptr noundef %6, i32 noundef %8, i32 noundef 0)
  ret i1 %9
}

; Function Attrs: mustprogress nounwind uwtable
define linkonce_odr hidden void @_ZN5array6solver12axiom_recordC2ENS1_6kind_tEPN3euf5enodeES5_(ptr noundef nonnull align 8 dereferenceable(24) %0, i32 noundef %1, ptr noundef %2, ptr noundef %3) unnamed_addr #6 comdat align 2 {
  %5 = alloca ptr, align 8
  %6 = alloca i32, align 4
  %7 = alloca ptr, align 8
  %8 = alloca ptr, align 8
  store ptr %0, ptr %5, align 8, !tbaa !463
  store i32 %1, ptr %6, align 4, !tbaa !464
  store ptr %2, ptr %7, align 8, !tbaa !175
  store ptr %3, ptr %8, align 8, !tbaa !175
  %9 = load ptr, ptr %5, align 8
  %10 = getelementptr inbounds nuw %"struct.array::solver::axiom_record", ptr %9, i32 0, i32 0
  %11 = load i32, ptr %6, align 4, !tbaa !464
  store i32 %11, ptr %10, align 8, !tbaa !466
  %12 = getelementptr inbounds nuw %"struct.array::solver::axiom_record", ptr %9, i32 0, i32 1
  store i32 0, ptr %12, align 4, !tbaa !469
  %13 = getelementptr inbounds nuw %"struct.array::solver::axiom_record", ptr %9, i32 0, i32 2
  %14 = load ptr, ptr %7, align 8, !tbaa !175
  store ptr %14, ptr %13, align 8, !tbaa !470
  %15 = getelementptr inbounds nuw %"struct.array::solver::axiom_record", ptr %9, i32 0, i32 3
  %16 = load ptr, ptr %8, align 8, !tbaa !175
  store ptr %16, ptr %15, align 8, !tbaa !471
  ret void
}

; Function Attrs: mustprogress uwtable
define linkonce_odr hidden noundef zeroext i1 @_ZNK17array_recognizers8is_arrayEP4expr(ptr noundef nonnull align 4 dereferenceable(4) %0, ptr noundef %1) #4 comdat align 2 {
  %3 = alloca ptr, align 8
  %4 = alloca ptr, align 8
  store ptr %0, ptr %3, align 8, !tbaa !359
  store ptr %1, ptr %4, align 8, !tbaa !332
  %5 = load ptr, ptr %3, align 8
  %6 = load ptr, ptr %4, align 8, !tbaa !332
  %7 = call noundef ptr @_ZNK4expr8get_sortEv(ptr noundef nonnull align 4 dereferenceable(16) %6)
  %8 = call noundef zeroext i1 @_ZNK17array_recognizers8is_arrayEP4sort(ptr noundef nonnull align 4 dereferenceable(4) %5, ptr noundef %7)
  ret i1 %8
}

; Function Attrs: mustprogress nounwind uwtable
define linkonce_odr hidden noundef ptr @_ZNK3euf5enode8get_exprEv(ptr noundef nonnull align 8 dereferenceable(176) %0) #6 comdat align 2 {
  %2 = alloca ptr, align 8
  store ptr %0, ptr %2, align 8, !tbaa !175
  %3 = load ptr, ptr %2, align 8
  %4 = getelementptr inbounds nuw %"class.euf::enode", ptr %3, i32 0, i32 0
  %5 = load ptr, ptr %4, align 8, !tbaa !338
  ret ptr %5
}

; Function Attrs: mustprogress nounwind uwtable
define linkonce_odr hidden noundef nonnull align 8 dereferenceable(8) ptr @_ZNK6vectorIPN3euf5enodeELb0EjEixEj(ptr noundef nonnull align 8 dereferenceable(8) %0, i32 noundef %1) #6 comdat align 2 {
  %3 = alloca ptr, align 8
  %4 = alloca i32, align 4
  store ptr %0, ptr %3, align 8, !tbaa !144
  store i32 %1, ptr %4, align 4, !tbaa !10
  %5 = load ptr, ptr %3, align 8
  %6 = getelementptr inbounds nuw %class.vector, ptr %5, i32 0, i32 0
  %7 = load ptr, ptr %6, align 8, !tbaa !347
  %8 = load i32, ptr %4, align 4, !tbaa !10
  %9 = zext i32 %8 to i64
  %10 = getelementptr inbounds nuw ptr, ptr %7, i64 %9
  ret ptr %10
}

; Function Attrs: mustprogress uwtable
define linkonce_odr hidden void @_ZN5array6solver20extensionality_axiomEPN3euf5enodeES3_(ptr dead_on_unwind noalias writable sret(%"struct.array::solver::axiom_record") align 8 %0, ptr noundef nonnull align 8 dereferenceable(536) %1, ptr noundef %2, ptr noundef %3) #4 comdat align 2 {
  %5 = alloca ptr, align 8
  %6 = alloca ptr, align 8
  %7 = alloca ptr, align 8
  store ptr %1, ptr %5, align 8, !tbaa !3
  store ptr %2, ptr %6, align 8, !tbaa !175
  store ptr %3, ptr %7, align 8, !tbaa !175
  %8 = load ptr, ptr %6, align 8, !tbaa !175
  %9 = load ptr, ptr %7, align 8, !tbaa !175
  call void @_ZN5array6solver12axiom_recordC2ENS1_6kind_tEPN3euf5enodeES5_(ptr noundef nonnull align 8 dereferenceable(24) %0, i32 noundef 2, ptr noundef %8, ptr noundef %9)
  ret void
}

; Function Attrs: mustprogress uwtable
define linkonce_odr hidden noundef zeroext i1 @_ZNK5array6solver8is_arrayEPN3euf5enodeE(ptr noundef nonnull align 8 dereferenceable(536) %0, ptr noundef %1) #4 comdat align 2 {
  %3 = alloca ptr, align 8
  %4 = alloca ptr, align 8
  store ptr %0, ptr %3, align 8, !tbaa !3
  store ptr %1, ptr %4, align 8, !tbaa !175
  %5 = load ptr, ptr %3, align 8
  %6 = getelementptr inbounds nuw %"class.array::solver", ptr %5, i32 0, i32 1
  %7 = load ptr, ptr %4, align 8, !tbaa !175
  %8 = call noundef ptr @_ZNK3euf5enode8get_exprEv(ptr noundef nonnull align 8 dereferenceable(176) %7)
  %9 = call noundef zeroext i1 @_ZNK17array_recognizers8is_arrayEP4expr(ptr noundef nonnull align 4 dereferenceable(4) %6, ptr noundef %8)
  ret i1 %9
}

; Function Attrs: mustprogress nounwind uwtable
define linkonce_odr hidden noundef i32 @_ZNK3euf5th_eq2v2Ev(ptr noundef nonnull align 8 dereferenceable(32) %0) #6 comdat align 2 {
  %2 = alloca ptr, align 8
  store ptr %0, ptr %2, align 8, !tbaa !177
  %3 = load ptr, ptr %2, align 8
  %4 = getelementptr inbounds nuw %"class.euf::th_eq", ptr %3, i32 0, i32 2
  %5 = load i32, ptr %4, align 8, !tbaa !183
  ret i32 %5
}

; Function Attrs: mustprogress uwtable
define linkonce_odr hidden noundef ptr @_ZNK3euf13th_euf_solver9var2enodeEi(ptr noundef nonnull align 8 dereferenceable(108) %0, i32 noundef %1) #4 comdat align 2 {
  %3 = alloca ptr, align 8
  %4 = alloca i32, align 4
  store ptr %0, ptr %3, align 8, !tbaa !154
  store i32 %1, ptr %4, align 4, !tbaa !10
  %5 = load ptr, ptr %3, align 8
  %6 = getelementptr inbounds nuw %"class.euf::th_euf_solver", ptr %5, i32 0, i32 2
  %7 = load i32, ptr %4, align 4, !tbaa !10
  %8 = call noundef nonnull align 8 dereferenceable(8) ptr @_ZNK6vectorIPN3euf5enodeELb0EjEixEj(ptr noundef nonnull align 8 dereferenceable(8) %6, i32 noundef %7)
  %9 = load ptr, ptr %8, align 8, !tbaa !175
  ret ptr %9
}

; Function Attrs: mustprogress nounwind uwtable
define linkonce_odr hidden noundef i32 @_ZNK3euf5th_eq2v1Ev(ptr noundef nonnull align 8 dereferenceable(32) %0) #6 comdat align 2 {
  %2 = alloca ptr, align 8
  store ptr %0, ptr %2, align 8, !tbaa !177
  %3 = load ptr, ptr %2, align 8
  %4 = getelementptr inbounds nuw %"class.euf::th_eq", ptr %3, i32 0, i32 1
  %5 = load i32, ptr %4, align 4, !tbaa !181
  ret i32 %5
}

; Function Attrs: mustprogress uwtable
define linkonce_odr hidden void @_ZN3euf13th_euf_solver10force_pushEv(ptr noundef nonnull align 8 dereferenceable(108) %0) #4 comdat align 2 {
  %2 = alloca ptr, align 8
  store ptr %0, ptr %2, align 8, !tbaa !154
  %3 = load ptr, ptr %2, align 8
  br label %4

4:                                                ; preds = %12, %1
  %5 = getelementptr inbounds nuw %"class.euf::th_euf_solver", ptr %3, i32 0, i32 4
  %6 = load i32, ptr %5, align 8, !tbaa !161
  %7 = icmp ugt i32 %6, 0
  br i1 %7, label %8, label %16

8:                                                ; preds = %4
  %9 = load ptr, ptr %3, align 8, !tbaa !12
  %10 = getelementptr inbounds ptr, ptr %9, i64 64
  %11 = load ptr, ptr %10, align 8
  call void %11(ptr noundef nonnull align 8 dereferenceable(108) %3)
  br label %12

12:                                               ; preds = %8
  %13 = getelementptr inbounds nuw %"class.euf::th_euf_solver", ptr %3, i32 0, i32 4
  %14 = load i32, ptr %13, align 8, !tbaa !161
  %15 = add i32 %14, -1
  store i32 %15, ptr %13, align 8, !tbaa !161
  br label %4, !llvm.loop !162

16:                                               ; preds = %4
  ret void
}

; Function Attrs: mustprogress uwtable
define hidden void @_ZN5array6solver12new_diseq_ehERKN3euf5th_eqE(ptr noundef nonnull align 8 dereferenceable(536) %0, ptr noundef nonnull align 8 dereferenceable(32) %1) unnamed_addr #4 align 2 {
  %3 = alloca ptr, align 8
  %4 = alloca ptr, align 8
  %5 = alloca ptr, align 8
  %6 = alloca ptr, align 8
  %7 = alloca %"struct.array::solver::axiom_record", align 8
  store ptr %0, ptr %3, align 8, !tbaa !3
  store ptr %1, ptr %4, align 8, !tbaa !177
  %8 = load ptr, ptr %3, align 8
  call void @_ZN3euf13th_euf_solver10force_pushEv(ptr noundef nonnull align 8 dereferenceable(108) %8)
  call void @llvm.lifetime.start.p0(i64 8, ptr %5) #3
  %9 = load ptr, ptr %4, align 8, !tbaa !177
  %10 = call noundef i32 @_ZNK3euf5th_eq2v1Ev(ptr noundef nonnull align 8 dereferenceable(32) %9)
  %11 = call noundef ptr @_ZNK3euf13th_euf_solver9var2enodeEi(ptr noundef nonnull align 8 dereferenceable(108) %8, i32 noundef %10)
  store ptr %11, ptr %5, align 8, !tbaa !175
  call void @llvm.lifetime.start.p0(i64 8, ptr %6) #3
  %12 = load ptr, ptr %4, align 8, !tbaa !177
  %13 = call noundef i32 @_ZNK3euf5th_eq2v2Ev(ptr noundef nonnull align 8 dereferenceable(32) %12)
  %14 = call noundef ptr @_ZNK3euf13th_euf_solver9var2enodeEi(ptr noundef nonnull align 8 dereferenceable(108) %8, i32 noundef %13)
  store ptr %14, ptr %6, align 8, !tbaa !175
  %15 = load ptr, ptr %5, align 8, !tbaa !175
  %16 = call noundef zeroext i1 @_ZNK5array6solver8is_arrayEPN3euf5enodeE(ptr noundef nonnull align 8 dereferenceable(536) %8, ptr noundef %15)
  br i1 %16, label %17, label %20

17:                                               ; preds = %2
  call void @llvm.lifetime.start.p0(i64 24, ptr %7) #3
  %18 = load ptr, ptr %5, align 8, !tbaa !175
  %19 = load ptr, ptr %6, align 8, !tbaa !175
  call void @_ZN5array6solver20extensionality_axiomEPN3euf5enodeES3_(ptr dead_on_unwind writable sret(%"struct.array::solver::axiom_record") align 8 %7, ptr noundef nonnull align 8 dereferenceable(536) %8, ptr noundef %18, ptr noundef %19)
  call void @_ZN5array6solver10push_axiomERKNS0_12axiom_recordE(ptr noundef nonnull align 8 dereferenceable(536) %8, ptr noundef nonnull align 8 dereferenceable(24) %7)
  call void @llvm.lifetime.end.p0(i64 24, ptr %7) #3
  br label %20

20:                                               ; preds = %17, %2
  call void @llvm.lifetime.end.p0(i64 8, ptr %6) #3
  call void @llvm.lifetime.end.p0(i64 8, ptr %5) #3
  ret void
}