; Function Attrs: mustprogress uwtable
define hidden void @_ZN5array6solver12new_diseq_ehERKN3euf5th_eqE(ptr noundef nonnull align 8 dereferenceable(536) %0, ptr noundef nonnull readonly align 8 captures(none) dereferenceable(32) %1) unnamed_addr #3 align 2 {
  %3 = alloca %"struct.array::solver::axiom_record", align 8
  %4 = getelementptr inbounds nuw i8, ptr %0, i64 104
  %5 = load i32, ptr %4, align 8, !tbaa !160
  %.not1.i = icmp eq i32 %5, 0
  br i1 %.not1.i, label %_ZN3euf13th_euf_solver10force_pushEv.exit, label %.lr.ph.i

.lr.ph.i:                                         ; preds = %2, %.lr.ph.i
  %6 = load ptr, ptr %0, align 8, !tbaa !3
  %7 = getelementptr inbounds nuw i8, ptr %6, i64 512
  %8 = load ptr, ptr %7, align 8
  tail call void %8(ptr noundef nonnull align 8 dereferenceable(108) %0)
  %9 = load i32, ptr %4, align 8, !tbaa !160
  %10 = add i32 %9, -1
  store i32 %10, ptr %4, align 8, !tbaa !160
  %.not.i = icmp eq i32 %10, 0
  br i1 %.not.i, label %_ZN3euf13th_euf_solver10force_pushEv.exit, label %.lr.ph.i, !llvm.loop !161

_ZN3euf13th_euf_solver10force_pushEv.exit:        ; preds = %.lr.ph.i, %2
  %11 = getelementptr inbounds nuw i8, ptr %1, i64 4
  %12 = load i32, ptr %11, align 4, !tbaa !177
  %13 = getelementptr inbounds nuw i8, ptr %0, i64 88
  %14 = load ptr, ptr %13, align 8, !tbaa !135
  %15 = zext i32 %12 to i64
  %16 = getelementptr inbounds nuw ptr, ptr %14, i64 %15
  %17 = load ptr, ptr %16, align 8, !tbaa !174
  %18 = getelementptr inbounds nuw i8, ptr %1, i64 8
  %19 = load i32, ptr %18, align 8, !tbaa !179
  %20 = zext i32 %19 to i64
  %21 = getelementptr inbounds nuw ptr, ptr %14, i64 %20
  %22 = load ptr, ptr %21, align 8, !tbaa !174
  %23 = load ptr, ptr %17, align 8, !tbaa !187
  %24 = tail call noundef ptr @_ZNK4expr8get_sortEv(ptr noundef nonnull align 4 dereferenceable(16) %23)
  %25 = getelementptr inbounds nuw i8, ptr %24, i64 24
  %26 = load ptr, ptr %25, align 8, !tbaa !198
  %27 = icmp eq ptr %26, null
  br i1 %27, label %_ZNK5array6solver8is_arrayEPN3euf5enodeE.exit.thread, label %_ZNK4decl13get_family_idEv.exit.thread.i.i.i.i.i

_ZNK4decl13get_family_idEv.exit.thread.i.i.i.i.i: ; preds = %_ZN3euf13th_euf_solver10force_pushEv.exit
  %28 = getelementptr inbounds nuw i8, ptr %0, i64 112
  %29 = load i32, ptr %28, align 8, !tbaa !201
  %30 = load i32, ptr %26, align 8, !tbaa !202
  %31 = icmp eq i32 %30, %29
  br i1 %31, label %_ZNK5array6solver8is_arrayEPN3euf5enodeE.exit, label %_ZNK5array6solver8is_arrayEPN3euf5enodeE.exit.thread

_ZNK5array6solver8is_arrayEPN3euf5enodeE.exit:    ; preds = %_ZNK4decl13get_family_idEv.exit.thread.i.i.i.i.i
  %32 = getelementptr inbounds nuw i8, ptr %26, i64 4
  %33 = load i32, ptr %32, align 4, !tbaa !206
  %34 = icmp eq i32 %33, 0
  br i1 %34, label %35, label %_ZNK5array6solver8is_arrayEPN3euf5enodeE.exit.thread

35:                                               ; preds = %_ZNK5array6solver8is_arrayEPN3euf5enodeE.exit
  call void @llvm.lifetime.start.p0(i64 24, ptr nonnull %3) #20
  store i32 2, ptr %3, align 8, !tbaa !207, !alias.scope !211
  %36 = getelementptr inbounds nuw i8, ptr %3, i64 4
  store i32 0, ptr %36, align 4, !tbaa !214, !alias.scope !211
  %37 = getelementptr inbounds nuw i8, ptr %3, i64 8
  store ptr %17, ptr %37, align 8, !tbaa !215, !alias.scope !211
  %38 = getelementptr inbounds nuw i8, ptr %3, i64 16
  store ptr %22, ptr %38, align 8, !tbaa !216, !alias.scope !211
  call void @_ZN5array6solver10push_axiomERKNS0_12axiom_recordE(ptr noundef nonnull align 8 dereferenceable(536) %0, ptr noundef nonnull align 8 dereferenceable(24) %3)
  call void @llvm.lifetime.end.p0(i64 24, ptr nonnull %3) #20
  br label %_ZNK5array6solver8is_arrayEPN3euf5enodeE.exit.thread

_ZNK5array6solver8is_arrayEPN3euf5enodeE.exit.thread: ; preds = %_ZN3euf13th_euf_solver10force_pushEv.exit, %_ZNK4decl13get_family_idEv.exit.thread.i.i.i.i.i, %35, %_ZNK5array6solver8is_arrayEPN3euf5enodeE.exit
  ret void
}